; Function Attrs: mustprogress uwtable
define dso_local noundef nonnull align 8 dereferenceable(32) ptr @_ZNK25cmInstallCommandArguments20GetNamelinkComponentB5cxx11Ev(ptr noundef nonnull readonly align 8 dereferenceable(440) %0) local_unnamed_addr #5 align 2 personality ptr @__gxx_personality_v0 {
  %2 = alloca %"class.std::allocator", align 1
  %3 = getelementptr inbounds nuw i8, ptr %0, i64 176
  %4 = getelementptr inbounds nuw i8, ptr %0, i64 184
  %5 = load i64, ptr %4, align 8, !tbaa !10
  %6 = icmp eq i64 %5, 0
  br i1 %6, label %tailrecurse.i, label %_ZNK25cmInstallCommandArguments12GetComponentB5cxx11Ev.exit

tailrecurse.i:                                    ; preds = %1, %10
  %.tr.i = phi ptr [ %12, %10 ], [ %0, %1 ]
  %7 = getelementptr inbounds nuw i8, ptr %.tr.i, i64 152
  %8 = load i64, ptr %7, align 8, !tbaa !10
  %9 = icmp eq i64 %8, 0
  br i1 %9, label %10, label %.loopexit.i

10:                                               ; preds = %tailrecurse.i
  %11 = getelementptr inbounds nuw i8, ptr %.tr.i, i64 400
  %12 = load ptr, ptr %11, align 8, !tbaa !41
  %.not.i = icmp eq ptr %12, null
  br i1 %.not.i, label %13, label %tailrecurse.i

13:                                               ; preds = %10
  %14 = getelementptr inbounds nuw i8, ptr %.tr.i, i64 408
  %15 = getelementptr inbounds nuw i8, ptr %.tr.i, i64 416
  %16 = load i64, ptr %15, align 8, !tbaa !10
  %17 = icmp eq i64 %16, 0
  br i1 %17, label %18, label %_ZNK25cmInstallCommandArguments12GetComponentB5cxx11Ev.exit

18:                                               ; preds = %13
  %19 = load atomic i8, ptr @_ZGVZNK25cmInstallCommandArguments12GetComponentB5cxx11EvE20unspecifiedComponentB5cxx11 acquire, align 8
  %20 = icmp eq i8 %19, 0
  br i1 %20, label %21, label %_ZNK25cmInstallCommandArguments12GetComponentB5cxx11Ev.exit, !prof !62

21:                                               ; preds = %18
  %22 = tail call i32 @__cxa_guard_acquire(ptr nonnull @_ZGVZNK25cmInstallCommandArguments12GetComponentB5cxx11EvE20unspecifiedComponentB5cxx11) #25
  %.not4.i = icmp eq i32 %22, 0
  br i1 %.not4.i, label %_ZNK25cmInstallCommandArguments12GetComponentB5cxx11Ev.exit, label %23

23:                                               ; preds = %21
  call void @llvm.lifetime.start.p0(i64 1, ptr nonnull %2) #25
  invoke void @_ZNSt7__cxx1112basic_stringIcSt11char_traitsIcESaIcEEC2IS3_EEPKcRKS3_(ptr noundef nonnull align 8 dereferenceable(32) @_ZZNK25cmInstallCommandArguments12GetComponentB5cxx11EvE20unspecifiedComponentB5cxx11, ptr noundef nonnull @.str.24, ptr noundef nonnull align 1 dereferenceable(1) %2)
          to label %24 unwind label %26

24:                                               ; preds = %23
  call void @llvm.lifetime.end.p0(i64 1, ptr nonnull %2) #25
  %25 = call i32 @__cxa_atexit(ptr nonnull @_ZNSt7__cxx1112basic_stringIcSt11char_traitsIcESaIcEED2Ev, ptr nonnull @_ZZNK25cmInstallCommandArguments12GetComponentB5cxx11EvE20unspecifiedComponentB5cxx11, ptr nonnull @__dso_handle) #25
  call void @__cxa_guard_release(ptr nonnull @_ZGVZNK25cmInstallCommandArguments12GetComponentB5cxx11EvE20unspecifiedComponentB5cxx11) #25
  br label %_ZNK25cmInstallCommandArguments12GetComponentB5cxx11Ev.exit

26:                                               ; preds = %23
  %27 = landingpad { ptr, i32 }
          cleanup
  call void @llvm.lifetime.end.p0(i64 1, ptr nonnull %2) #25
  call void @__cxa_guard_abort(ptr nonnull @_ZGVZNK25cmInstallCommandArguments12GetComponentB5cxx11EvE20unspecifiedComponentB5cxx11) #25
  resume { ptr, i32 } %27

.loopexit.i:                                      ; preds = %tailrecurse.i
  %28 = getelementptr inbounds nuw i8, ptr %.tr.i, i64 144
  br label %_ZNK25cmInstallCommandArguments12GetComponentB5cxx11Ev.exit

_ZNK25cmInstallCommandArguments12GetComponentB5cxx11Ev.exit: ; preds = %.loopexit.i, %24, %21, %18, %13, %1
  %.0 = phi ptr [ %3, %1 ], [ %14, %13 ], [ @_ZZNK25cmInstallCommandArguments12GetComponentB5cxx11EvE20unspecifiedComponentB5cxx11, %24 ], [ @_ZZNK25cmInstallCommandArguments12GetComponentB5cxx11EvE20unspecifiedComponentB5cxx11, %21 ], [ @_ZZNK25cmInstallCommandArguments12GetComponentB5cxx11EvE20unspecifiedComponentB5cxx11, %18 ], [ %28, %.loopexit.i ]
  ret ptr %.0
}